target datalayout = "e-m:e-p270:32:32-p271:32:32-p272:64:64-i64:64-i128:128-f80:128-n8:16:32:64-S128"
target triple = "x86_64-unknown-linux-gnu"

%class.pdecl.base = type <{ ptr, i32, i32, i32 }>
%class.pdecl = type <{ ptr, i32, i32, i32, [4 x i8] }>
%class.psort_decl = type { %class.pdecl.base, %class.symbol, i32, ptr }
%class.symbol = type { ptr }
%class.pdatatype_decl = type { %class.psort_decl, %class.ptr_vector.63, ptr }
%class.ptr_vector.63 = type { %class.vector.64 }
%class.vector.64 = type { ptr }

; Function Attrs: mustprogress uwtable
define linkonce_odr hidden void @_ZN6vectorIP17pconstructor_declLb0EjE11free_memoryEv(ptr noundef nonnull align 8 dereferenceable(8) %this) #4 comdat align 2 {
entry:
  %this.addr = alloca ptr, align 8
  store ptr %this, ptr %this.addr, align 8
  %this1 = load ptr, ptr %this.addr, align 8
  %m_data = getelementptr inbounds %class.vector.64, ptr %this1, i32 0, i32 0
  %0 = load ptr, ptr %m_data, align 8
  %add.ptr = getelementptr inbounds i32, ptr %0, i64 -2
  call void @_ZN6memory10deallocateEPv(ptr noundef %add.ptr)
  ret void
}

; Function Attrs: noreturn nounwind uwtable
define linkonce_odr hidden void @__clang_call_terminate(ptr noundef %0) #8 comdat {
  %2 = call ptr @__cxa_begin_catch(ptr %0) #3
  call void @_ZSt9terminatev() #13
  unreachable
}

; Function Attrs: mustprogress uwtable
define linkonce_odr hidden void @_ZN6vectorIP17pconstructor_declLb0EjE7destroyEv(ptr noundef nonnull align 8 dereferenceable(8) %this) #4 comdat align 2 {
entry:
  %this.addr = alloca ptr, align 8
  store ptr %this, ptr %this.addr, align 8
  %this1 = load ptr, ptr %this.addr, align 8
  %m_data = getelementptr inbounds %class.vector.64, ptr %this1, i32 0, i32 0
  %0 = load ptr, ptr %m_data, align 8
  %tobool = icmp ne ptr %0, null
  br i1 %tobool, label %if.then, label %if.end

if.then:                                          ; preds = %entry
  call void @_ZN6vectorIP17pconstructor_declLb0EjE11free_memoryEv(ptr noundef nonnull align 8 dereferenceable(8) %this1)
  br label %if.end

if.end:                                           ; preds = %if.then, %entry
  ret void
}

; Function Attrs: mustprogress nounwind uwtable
define linkonce_odr hidden void @_ZN5pdecl7inc_refEv(ptr noundef nonnull align 8 dereferenceable(20) %this) #5 comdat align 2 {
entry:
  %this.addr = alloca ptr, align 8
  store ptr %this, ptr %this.addr, align 8
  %this1 = load ptr, ptr %this.addr, align 8
  %m_ref_count = getelementptr inbounds %class.pdecl, ptr %this1, i32 0, i32 3
  %0 = load i32, ptr %m_ref_count, align 8
  %inc = add i32 %0, 1
  store i32 %inc, ptr %m_ref_count, align 8
  ret void
}

; Function Attrs: mustprogress uwtable
define linkonce_odr hidden noundef nonnull align 8 dereferenceable(8) ptr @_ZN6vectorIP17pconstructor_declLb0EjE9push_backERKS1_(ptr noundef nonnull align 8 dereferenceable(8) %this, ptr noundef nonnull align 8 dereferenceable(8) %elem) #4 comdat align 2 {
entry:
  %this.addr = alloca ptr, align 8
  %elem.addr = alloca ptr, align 8
  store ptr %this, ptr %this.addr, align 8
  store ptr %elem, ptr %elem.addr, align 8
  %this1 = load ptr, ptr %this.addr, align 8
  %m_data = getelementptr inbounds %class.vector.64, ptr %this1, i32 0, i32 0
  %0 = load ptr, ptr %m_data, align 8
  %cmp = icmp eq ptr %0, null
  br i1 %cmp, label %if.then, label %lor.lhs.false

lor.lhs.false:                                    ; preds = %entry
  %m_data2 = getelementptr inbounds %class.vector.64, ptr %this1, i32 0, i32 0
  %1 = load ptr, ptr %m_data2, align 8
  %arrayidx = getelementptr inbounds i32, ptr %1, i64 -1
  %2 = load i32, ptr %arrayidx, align 4
  %m_data3 = getelementptr inbounds %class.vector.64, ptr %this1, i32 0, i32 0
  %3 = load ptr, ptr %m_data3, align 8
  %arrayidx4 = getelementptr inbounds i32, ptr %3, i64 -2
  %4 = load i32, ptr %arrayidx4, align 4
  %cmp5 = icmp eq i32 %2, %4
  br i1 %cmp5, label %if.then, label %if.end

if.then:                                          ; preds = %lor.lhs.false, %entry
  call void @_ZN6vectorIP17pconstructor_declLb0EjE13expand_vectorEv(ptr noundef nonnull align 8 dereferenceable(8) %this1)
  br label %if.end

if.end:                                           ; preds = %if.then, %lor.lhs.false
  %m_data6 = getelementptr inbounds %class.vector.64, ptr %this1, i32 0, i32 0
  %5 = load ptr, ptr %m_data6, align 8
  %m_data7 = getelementptr inbounds %class.vector.64, ptr %this1, i32 0, i32 0
  %6 = load ptr, ptr %m_data7, align 8
  %arrayidx8 = getelementptr inbounds i32, ptr %6, i64 -1
  %7 = load i32, ptr %arrayidx8, align 4
  %idx.ext = zext i32 %7 to i64
  %add.ptr = getelementptr inbounds ptr, ptr %5, i64 %idx.ext
  %8 = load ptr, ptr %elem.addr, align 8
  %9 = load ptr, ptr %8, align 8
  store ptr %9, ptr %add.ptr, align 8
  %m_data9 = getelementptr inbounds %class.vector.64, ptr %this1, i32 0, i32 0
  %10 = load ptr, ptr %m_data9, align 8
  %arrayidx10 = getelementptr inbounds i32, ptr %10, i64 -1
  %11 = load i32, ptr %arrayidx10, align 4
  %inc = add i32 %11, 1
  store i32 %inc, ptr %arrayidx10, align 4
  ret ptr %this1
}

; Function Attrs: mustprogress nounwind uwtable
define linkonce_odr hidden void @_ZN5pdeclD2Ev(ptr noundef nonnull align 8 dereferenceable(20) %this) unnamed_addr #5 comdat align 2 {
entry:
  %this.addr = alloca ptr, align 8
  store ptr %this, ptr %this.addr, align 8
  ret void
}

; Function Attrs: mustprogress nounwind uwtable
define linkonce_odr hidden void @_ZN6vectorIP17pconstructor_declLb0EjED2Ev(ptr noundef nonnull align 8 dereferenceable(8) %this) unnamed_addr #5 comdat align 2 personality ptr @__gxx_personality_v0 {
entry:
  %this.addr = alloca ptr, align 8
  store ptr %this, ptr %this.addr, align 8
  %this1 = load ptr, ptr %this.addr, align 8
  invoke void @_ZN6vectorIP17pconstructor_declLb0EjE7destroyEv(ptr noundef nonnull align 8 dereferenceable(8) %this1)
          to label %invoke.cont unwind label %terminate.lpad

invoke.cont:                                      ; preds = %entry
  ret void

terminate.lpad:                                   ; preds = %entry
  %0 = landingpad { ptr, i32 }
          catch ptr null
  %1 = extractvalue { ptr, i32 } %0, 0
  call void @__clang_call_terminate(ptr %1) #13
  unreachable
}

; Function Attrs: mustprogress uwtable
define linkonce_odr hidden void @_ZN13pdecl_manager7inc_refEP5pdecl(ptr noundef nonnull align 8 dereferenceable(192) %this, ptr noundef %p) #4 comdat align 2 {
entry:
  %this.addr = alloca ptr, align 8
  %p.addr = alloca ptr, align 8
  store ptr %this, ptr %this.addr, align 8
  store ptr %p, ptr %p.addr, align 8
  %0 = load ptr, ptr %p.addr, align 8
  %tobool = icmp ne ptr %0, null
  br i1 %tobool, label %if.then, label %if.end

if.then:                                          ; preds = %entry
  %1 = load ptr, ptr %p.addr, align 8
  call void @_ZN5pdecl7inc_refEv(ptr noundef nonnull align 8 dereferenceable(20) %1)
  br label %if.end

if.end:                                           ; preds = %if.then, %entry
  ret void
}

; Function Attrs: mustprogress uwtable
define linkonce_odr hidden void @_ZN6vectorIP17pconstructor_declLb0EjEC2EjPKS1_(ptr noundef nonnull align 8 dereferenceable(8) %this, i32 noundef %s, ptr noundef %data) unnamed_addr #4 comdat align 2 {
entry:
  %this.addr = alloca ptr, align 8
  %s.addr = alloca i32, align 4
  %data.addr = alloca ptr, align 8
  %i = alloca i32, align 4
  store ptr %this, ptr %this.addr, align 8
  store i32 %s, ptr %s.addr, align 4
  store ptr %data, ptr %data.addr, align 8
  %this1 = load ptr, ptr %this.addr, align 8
  %m_data = getelementptr inbounds %class.vector.64, ptr %this1, i32 0, i32 0
  store ptr null, ptr %m_data, align 8
  store i32 0, ptr %i, align 4
  br label %for.cond

for.cond:                                         ; preds = %for.inc, %entry
  %0 = load i32, ptr %i, align 4
  %1 = load i32, ptr %s.addr, align 4
  %cmp = icmp ult i32 %0, %1
  br i1 %cmp, label %for.body, label %for.end

for.body:                                         ; preds = %for.cond
  %2 = load ptr, ptr %data.addr, align 8
  %3 = load i32, ptr %i, align 4
  %idxprom = zext i32 %3 to i64
  %arrayidx = getelementptr inbounds ptr, ptr %2, i64 %idxprom
  %call = call noundef nonnull align 8 dereferenceable(8) ptr @_ZN6vectorIP17pconstructor_declLb0EjE9push_backERKS1_(ptr noundef nonnull align 8 dereferenceable(8) %this1, ptr noundef nonnull align 8 dereferenceable(8) %arrayidx)
  br label %for.inc

for.inc:                                          ; preds = %for.body
  %4 = load i32, ptr %i, align 4
  %inc = add i32 %4, 1
  store i32 %inc, ptr %i, align 4
  br label %for.cond, !llvm.loop !69

for.end:                                          ; preds = %for.cond
  ret void
}

; Function Attrs: mustprogress nounwind uwtable
define linkonce_odr hidden void @_ZN5pdeclC2Ejj(ptr noundef nonnull align 8 dereferenceable(20) %this, i32 noundef %id, i32 noundef %num_params) unnamed_addr #5 comdat align 2 {
entry:
  %this.addr = alloca ptr, align 8
  %id.addr = alloca i32, align 4
  %num_params.addr = alloca i32, align 4
  store ptr %this, ptr %this.addr, align 8
  store i32 %id, ptr %id.addr, align 4
  store i32 %num_params, ptr %num_params.addr, align 4
  %this1 = load ptr, ptr %this.addr, align 8
  store ptr getelementptr inbounds ({ [10 x ptr] }, ptr @_ZTV5pdecl, i32 0, i32 0, i32 2), ptr %this1, align 8
  %m_id = getelementptr inbounds %class.pdecl, ptr %this1, i32 0, i32 1
  %0 = load i32, ptr %id.addr, align 4
  store i32 %0, ptr %m_id, align 8
  %m_num_params = getelementptr inbounds %class.pdecl, ptr %this1, i32 0, i32 2
  %1 = load i32, ptr %num_params.addr, align 4
  store i32 %1, ptr %m_num_params, align 4
  %m_ref_count = getelementptr inbounds %class.pdecl, ptr %this1, i32 0, i32 3
  store i32 0, ptr %m_ref_count, align 8
  ret void
}

; Function Attrs: mustprogress nounwind uwtable
define linkonce_odr hidden void @_ZN10psort_declD2Ev(ptr noundef nonnull align 8 dereferenceable(48) %this) unnamed_addr #5 comdat align 2 {
entry:
  %this.addr = alloca ptr, align 8
  store ptr %this, ptr %this.addr, align 8
  %this1 = load ptr, ptr %this.addr, align 8
  call void @_ZN5pdeclD2Ev(ptr noundef nonnull align 8 dereferenceable(20) %this1) #3
  ret void
}

; Function Attrs: mustprogress nounwind uwtable
define linkonce_odr hidden void @_ZN10ptr_vectorI17pconstructor_declED2Ev(ptr noundef nonnull align 8 dereferenceable(8) %this) unnamed_addr #5 comdat align 2 {
entry:
  %this.addr = alloca ptr, align 8
  store ptr %this, ptr %this.addr, align 8
  %this1 = load ptr, ptr %this.addr, align 8
  call void @_ZN6vectorIP17pconstructor_declLb0EjED2Ev(ptr noundef nonnull align 8 dereferenceable(8) %this1) #3
  ret void
}

; Function Attrs: mustprogress uwtable
define linkonce_odr hidden void @_ZN13pdecl_manager7inc_refI17pconstructor_declEEvjPKPT_(ptr noundef nonnull align 8 dereferenceable(192) %this, i32 noundef %num, ptr noundef %ps) #4 comdat align 2 {
entry:
  %this.addr = alloca ptr, align 8
  %num.addr = alloca i32, align 4
  %ps.addr = alloca ptr, align 8
  %i = alloca i32, align 4
  store ptr %this, ptr %this.addr, align 8
  store i32 %num, ptr %num.addr, align 4
  store ptr %ps, ptr %ps.addr, align 8
  %this1 = load ptr, ptr %this.addr, align 8
  store i32 0, ptr %i, align 4
  br label %for.cond

for.cond:                                         ; preds = %for.inc, %entry
  %0 = load i32, ptr %i, align 4
  %1 = load i32, ptr %num.addr, align 4
  %cmp = icmp ult i32 %0, %1
  br i1 %cmp, label %for.body, label %for.end

for.body:                                         ; preds = %for.cond
  %2 = load ptr, ptr %ps.addr, align 8
  %3 = load i32, ptr %i, align 4
  %idxprom = zext i32 %3 to i64
  %arrayidx = getelementptr inbounds ptr, ptr %2, i64 %idxprom
  %4 = load ptr, ptr %arrayidx, align 8
  call void @_ZN13pdecl_manager7inc_refEP5pdecl(ptr noundef nonnull align 8 dereferenceable(192) %this1, ptr noundef %4)
  br label %for.inc

for.inc:                                          ; preds = %for.body
  %5 = load i32, ptr %i, align 4
  %inc = add i32 %5, 1
  store i32 %inc, ptr %i, align 4
  br label %for.cond, !llvm.loop !15

for.end:                                          ; preds = %for.cond
  ret void
}

; Function Attrs: mustprogress uwtable
define linkonce_odr hidden void @_ZN10ptr_vectorI17pconstructor_declEC2EjPKPS0_(ptr noundef nonnull align 8 dereferenceable(8) %this, i32 noundef %s, ptr noundef %data) unnamed_addr #4 comdat align 2 {
entry:
  %this.addr = alloca ptr, align 8
  %s.addr = alloca i32, align 4
  %data.addr = alloca ptr, align 8
  store ptr %this, ptr %this.addr, align 8
  store i32 %s, ptr %s.addr, align 4
  store ptr %data, ptr %data.addr, align 8
  %this1 = load ptr, ptr %this.addr, align 8
  %0 = load i32, ptr %s.addr, align 4
  %1 = load ptr, ptr %data.addr, align 8
  call void @_ZN6vectorIP17pconstructor_declLb0EjEC2EjPKS1_(ptr noundef nonnull align 8 dereferenceable(8) %this1, i32 noundef %0, ptr noundef %1)
  ret void
}

; Function Attrs: mustprogress uwtable
define hidden void @_ZN10psort_declC2EjjR13pdecl_managerRK6symbol(ptr noundef nonnull align 8 dereferenceable(48) %this, i32 noundef %id, i32 noundef %num_params, ptr noundef nonnull align 8 dereferenceable(192) %m, ptr noundef nonnull align 8 dereferenceable(8) %n) unnamed_addr #4 align 2 {
entry:
  %this.addr = alloca ptr, align 8
  %id.addr = alloca i32, align 4
  %num_params.addr = alloca i32, align 4
  %m.addr = alloca ptr, align 8
  %n.addr = alloca ptr, align 8
  store ptr %this, ptr %this.addr, align 8
  store i32 %id, ptr %id.addr, align 4
  store i32 %num_params, ptr %num_params.addr, align 4
  store ptr %m, ptr %m.addr, align 8
  store ptr %n, ptr %n.addr, align 8
  %this1 = load ptr, ptr %this.addr, align 8
  %0 = load i32, ptr %id.addr, align 4
  %1 = load i32, ptr %num_params.addr, align 4
  call void @_ZN5pdeclC2Ejj(ptr noundef nonnull align 8 dereferenceable(20) %this1, i32 noundef %0, i32 noundef %1)
  store ptr getelementptr inbounds ({ [13 x ptr] }, ptr @_ZTV10psort_decl, i32 0, i32 0, i32 2), ptr %this1, align 8
  %m_name = getelementptr inbounds %class.psort_decl, ptr %this1, i32 0, i32 1
  %2 = load ptr, ptr %n.addr, align 8
  call void @llvm.memcpy.p0.p0.i64(ptr align 8 %m_name, ptr align 8 %2, i64 8, i1 false)
  %m_psort_kind = getelementptr inbounds %class.psort_decl, ptr %this1, i32 0, i32 2
  store i32 0, ptr %m_psort_kind, align 8
  %m_inst_cache = getelementptr inbounds %class.psort_decl, ptr %this1, i32 0, i32 3
  store ptr null, ptr %m_inst_cache, align 8
  ret void
}

; Function Attrs: mustprogress uwtable
define hidden void @_ZN14pdatatype_declC2EjjR13pdecl_managerRK6symboljPKP17pconstructor_decl(ptr noundef nonnull align 8 dereferenceable(64) %this, i32 noundef %id, i32 noundef %num_params, ptr noundef nonnull align 8 dereferenceable(192) %m, ptr noundef nonnull align 8 dereferenceable(8) %n, i32 noundef %num_constructors, ptr noundef %constructors) unnamed_addr #4 align 2 personality ptr @__gxx_personality_v0 {
entry:
  %this.addr = alloca ptr, align 8
  %id.addr = alloca i32, align 4
  %num_params.addr = alloca i32, align 4
  %m.addr = alloca ptr, align 8
  %n.addr = alloca ptr, align 8
  %num_constructors.addr = alloca i32, align 4
  %constructors.addr = alloca ptr, align 8
  %exn.slot = alloca ptr, align 8
  %ehselector.slot = alloca i32, align 4
  store ptr %this, ptr %this.addr, align 8
  store i32 %id, ptr %id.addr, align 4
  store i32 %num_params, ptr %num_params.addr, align 4
  store ptr %m, ptr %m.addr, align 8
  store ptr %n, ptr %n.addr, align 8
  store i32 %num_constructors, ptr %num_constructors.addr, align 4
  store ptr %constructors, ptr %constructors.addr, align 8
  %this1 = load ptr, ptr %this.addr, align 8
  %0 = load i32, ptr %id.addr, align 4
  %1 = load i32, ptr %num_params.addr, align 4
  %2 = load ptr, ptr %m.addr, align 8
  %3 = load ptr, ptr %n.addr, align 8
  call void @_ZN10psort_declC2EjjR13pdecl_managerRK6symbol(ptr noundef nonnull align 8 dereferenceable(48) %this1, i32 noundef %0, i32 noundef %1, ptr noundef nonnull align 8 dereferenceable(192) %2, ptr noundef nonnull align 8 dereferenceable(8) %3)
  store ptr getelementptr inbounds ({ [13 x ptr] }, ptr @_ZTV14pdatatype_decl, i32 0, i32 0, i32 2), ptr %this1, align 8
  %m_constructors = getelementptr inbounds %class.pdatatype_decl, ptr %this1, i32 0, i32 1
  %4 = load i32, ptr %num_constructors.addr, align 4
  %5 = load ptr, ptr %constructors.addr, align 8
  invoke void @_ZN10ptr_vectorI17pconstructor_declEC2EjPKPS0_(ptr noundef nonnull align 8 dereferenceable(8) %m_constructors, i32 noundef %4, ptr noundef %5)
          to label %invoke.cont unwind label %lpad

invoke.cont:                                      ; preds = %entry
  %m_parent = getelementptr inbounds %class.pdatatype_decl, ptr %this1, i32 0, i32 2
  store ptr null, ptr %m_parent, align 8
  %6 = load ptr, ptr %m.addr, align 8
  %7 = load i32, ptr %num_constructors.addr, align 4
  %8 = load ptr, ptr %constructors.addr, align 8
  invoke void @_ZN13pdecl_manager7inc_refI17pconstructor_declEEvjPKPT_(ptr noundef nonnull align 8 dereferenceable(192) %6, i32 noundef %7, ptr noundef %8)
          to label %invoke.cont3 unwind label %lpad2

invoke.cont3:                                     ; preds = %invoke.cont
  ret void

lpad:                                             ; preds = %entry
  %9 = landingpad { ptr, i32 }
          cleanup
  %10 = extractvalue { ptr, i32 } %9, 0
  store ptr %10, ptr %exn.slot, align 8
  %11 = extractvalue { ptr, i32 } %9, 1
  store i32 %11, ptr %ehselector.slot, align 4
  br label %ehcleanup

lpad2:                                            ; preds = %invoke.cont
  %12 = landingpad { ptr, i32 }
          cleanup
  %13 = extractvalue { ptr, i32 } %12, 0
  store ptr %13, ptr %exn.slot, align 8
  %14 = extractvalue { ptr, i32 } %12, 1
  store i32 %14, ptr %ehselector.slot, align 4
  call void @_ZN10ptr_vectorI17pconstructor_declED2Ev(ptr noundef nonnull align 8 dereferenceable(8) %m_constructors) #3
  br label %ehcleanup

ehcleanup:                                        ; preds = %lpad2, %lpad
  call void @_ZN10psort_declD2Ev(ptr noundef nonnull align 8 dereferenceable(48) %this1) #3
  br label %eh.resume

eh.resume:                                        ; preds = %ehcleanup
  %exn = load ptr, ptr %exn.slot, align 8
  %sel = load i32, ptr %ehselector.slot, align 4
  %lpad.val = insertvalue { ptr, i32 } poison, ptr %exn, 0
  %lpad.val4 = insertvalue { ptr, i32 } %lpad.val, i32 %sel, 1
  resume { ptr, i32 } %lpad.val4
}