; Function Attrs: mustprogress uwtable
define hidden void @_ZN14pdatatype_declC2EjjR13pdecl_managerRK6symboljPKP17pconstructor_decl(ptr noundef nonnull align 8 dereferenceable(64) %this, i32 noundef %id, i32 noundef %num_params, ptr nocapture nonnull readnone align 8 %m, ptr nocapture noundef nonnull readonly align 8 dereferenceable(8) %n, i32 noundef %num_constructors, ptr nocapture noundef readonly %constructors) unnamed_addr #3 align 2 personality ptr @__gxx_personality_v0 {
entry:
  %m_id.i.i = getelementptr inbounds i8, ptr %this, i64 8
  store i32 %id, ptr %m_id.i.i, align 8
  %m_num_params.i.i = getelementptr inbounds i8, ptr %this, i64 12
  store i32 %num_params, ptr %m_num_params.i.i, align 4
  %m_ref_count.i.i = getelementptr inbounds i8, ptr %this, i64 16
  store i32 0, ptr %m_ref_count.i.i, align 8
  store ptr getelementptr inbounds ({ [13 x ptr] }, ptr @_ZTV10psort_decl, i64 0, i32 0, i64 2), ptr %this, align 8
  %m_name.i = getelementptr inbounds i8, ptr %this, i64 24
  %0 = load i64, ptr %n, align 8
  store i64 %0, ptr %m_name.i, align 8
  %m_psort_kind.i = getelementptr inbounds i8, ptr %this, i64 32
  store i32 0, ptr %m_psort_kind.i, align 8
  %m_inst_cache.i = getelementptr inbounds i8, ptr %this, i64 40
  store ptr null, ptr %m_inst_cache.i, align 8
  store ptr getelementptr inbounds ({ [13 x ptr] }, ptr @_ZTV14pdatatype_decl, i64 0, i32 0, i64 2), ptr %this, align 8
  %m_constructors = getelementptr inbounds i8, ptr %this, i64 48
  store ptr null, ptr %m_constructors, align 8
  %cmp3.not.i.i = icmp eq i32 %num_constructors, 0
  br i1 %cmp3.not.i.i, label %invoke.cont.thread, label %for.body.preheader.i.i

invoke.cont.thread:                               ; preds = %entry
  %m_parent6 = getelementptr inbounds i8, ptr %this, i64 56
  store ptr null, ptr %m_parent6, align 8
  br label %invoke.cont3

for.body.preheader.i.i:                           ; preds = %entry
  %wide.trip.count.i.i = zext i32 %num_constructors to i64
  br label %for.body.i.i

for.bodythread-pre-split.i.i:                     ; preds = %_ZN6vectorIP17pconstructor_declLb0EjE9push_backERKS1_.exit.i.i
  %.pr.i.i = load ptr, ptr %m_constructors, align 8
  br label %for.body.i.i

for.body.i.i:                                     ; preds = %for.bodythread-pre-split.i.i, %for.body.preheader.i.i
  %1 = phi ptr [ %.pr.i.i, %for.bodythread-pre-split.i.i ], [ null, %for.body.preheader.i.i ]
  %indvars.iv.i.i = phi i64 [ %indvars.iv.next.i.i, %for.bodythread-pre-split.i.i ], [ 0, %for.body.preheader.i.i ]
  %arrayidx.i.i = getelementptr inbounds ptr, ptr %constructors, i64 %indvars.iv.i.i
  %cmp.i.i.i = icmp eq ptr %1, null
  br i1 %cmp.i.i.i, label %if.then.i.i.i, label %lor.lhs.false.i.i.i

lor.lhs.false.i.i.i:                              ; preds = %for.body.i.i
  %arrayidx.i.i.i = getelementptr inbounds i8, ptr %1, i64 -4
  %2 = load i32, ptr %arrayidx.i.i.i, align 4
  %arrayidx4.i.i.i = getelementptr inbounds i8, ptr %1, i64 -8
  %3 = load i32, ptr %arrayidx4.i.i.i, align 4
  %cmp5.i.i.i = icmp eq i32 %2, %3
  br i1 %cmp5.i.i.i, label %if.then.i.i.i, label %_ZN6vectorIP17pconstructor_declLb0EjE9push_backERKS1_.exit.i.i

if.then.i.i.i:                                    ; preds = %lor.lhs.false.i.i.i, %for.body.i.i
  tail call void @_ZN6vectorIP17pconstructor_declLb0EjE13expand_vectorEv(ptr noundef nonnull align 8 dereferenceable(8) %m_constructors)
  %.pre.i.i.i = load ptr, ptr %m_constructors, align 8
  %arrayidx8.phi.trans.insert.i.i.i = getelementptr inbounds i8, ptr %.pre.i.i.i, i64 -4
  %.pre1.i.i.i = load i32, ptr %arrayidx8.phi.trans.insert.i.i.i, align 4
  br label %_ZN6vectorIP17pconstructor_declLb0EjE9push_backERKS1_.exit.i.i

_ZN6vectorIP17pconstructor_declLb0EjE9push_backERKS1_.exit.i.i: ; preds = %if.then.i.i.i, %lor.lhs.false.i.i.i
  %4 = phi i32 [ %.pre1.i.i.i, %if.then.i.i.i ], [ %2, %lor.lhs.false.i.i.i ]
  %5 = phi ptr [ %.pre.i.i.i, %if.then.i.i.i ], [ %1, %lor.lhs.false.i.i.i ]
  %idx.ext.i.i.i = zext i32 %4 to i64
  %add.ptr.i.i.i = getelementptr inbounds ptr, ptr %5, i64 %idx.ext.i.i.i
  %6 = load ptr, ptr %arrayidx.i.i, align 8
  store ptr %6, ptr %add.ptr.i.i.i, align 8
  %7 = load ptr, ptr %m_constructors, align 8
  %arrayidx10.i.i.i = getelementptr inbounds i8, ptr %7, i64 -4
  %8 = load i32, ptr %arrayidx10.i.i.i, align 4
  %inc.i.i.i = add i32 %8, 1
  store i32 %inc.i.i.i, ptr %arrayidx10.i.i.i, align 4
  %indvars.iv.next.i.i = add nuw nsw i64 %indvars.iv.i.i, 1
  %exitcond.not.i.i = icmp eq i64 %indvars.iv.next.i.i, %wide.trip.count.i.i
  br i1 %exitcond.not.i.i, label %invoke.cont, label %for.bodythread-pre-split.i.i, !llvm.loop !29

invoke.cont:                                      ; preds = %_ZN6vectorIP17pconstructor_declLb0EjE9push_backERKS1_.exit.i.i
  %m_parent = getelementptr inbounds i8, ptr %this, i64 56
  store ptr null, ptr %m_parent, align 8
  br label %for.body.i

for.body.i:                                       ; preds = %_ZN13pdecl_manager7inc_refEP5pdecl.exit.i, %invoke.cont
  %indvars.iv.i = phi i64 [ 0, %invoke.cont ], [ %indvars.iv.next.i, %_ZN13pdecl_manager7inc_refEP5pdecl.exit.i ]
  %arrayidx.i = getelementptr inbounds ptr, ptr %constructors, i64 %indvars.iv.i
  %9 = load ptr, ptr %arrayidx.i, align 8
  %tobool.not.i.i = icmp eq ptr %9, null
  br i1 %tobool.not.i.i, label %_ZN13pdecl_manager7inc_refEP5pdecl.exit.i, label %if.then.i.i

if.then.i.i:                                      ; preds = %for.body.i
  %m_ref_count.i.i.i = getelementptr inbounds i8, ptr %9, i64 16
  %10 = load i32, ptr %m_ref_count.i.i.i, align 8
  %inc.i.i.i5 = add i32 %10, 1
  store i32 %inc.i.i.i5, ptr %m_ref_count.i.i.i, align 8
  br label %_ZN13pdecl_manager7inc_refEP5pdecl.exit.i

_ZN13pdecl_manager7inc_refEP5pdecl.exit.i:        ; preds = %if.then.i.i, %for.body.i
  %indvars.iv.next.i = add nuw nsw i64 %indvars.iv.i, 1
  %exitcond.not.i = icmp eq i64 %indvars.iv.next.i, %wide.trip.count.i.i
  br i1 %exitcond.not.i, label %invoke.cont3, label %for.body.i, !llvm.loop !30

invoke.cont3:                                     ; preds = %_ZN13pdecl_manager7inc_refEP5pdecl.exit.i, %invoke.cont.thread
  ret void
}